target datalayout = "e-m:e-p270:32:32-p271:32:32-p272:64:64-i64:64-i128:128-f80:128-n8:16:32:64-S128"
target triple = "x86_64-pc-linux-gnu"

%struct.rb_transcoder = type { ptr, ptr, i32, ptr, i32, ptr, i32, i32, i32, i32, i32, i32, i64, ptr, ptr, ptr, ptr, ptr, ptr, ptr, ptr, ptr, ptr }
%struct.rb_econv_t = type { i32, i32, ptr, ptr, ptr, i64, ptr, ptr, ptr, ptr, ptr, ptr, i32, i32, i32, i32, ptr, %struct.anon, ptr, ptr }
%struct.anon = type { i32, ptr, ptr, ptr, ptr, i64, i64 }
%struct.rb_econv_elem_t = type { ptr, ptr, ptr, ptr, ptr, i32 }
%struct.rb_transcoding = type { ptr, i32, i32, i32, i64, i8, i32, i64, i64, %union.anon, i64, i64, %union.anon.0, %union.rb_transcoding_state_t }
%union.anon = type { ptr }
%union.anon.0 = type { ptr }
%union.rb_transcoding_state_t = type { ptr }

; Function Attrs: nounwind sspstrong uwtable
define internal void @rb_transcoding_close(ptr noundef %0) #0 {
  %2 = alloca ptr, align 8
  %3 = alloca ptr, align 8
  store ptr %0, ptr %2, align 8, !tbaa !66
  call void @llvm.lifetime.start.p0(i64 8, ptr %3) #25
  %4 = load ptr, ptr %2, align 8, !tbaa !66
  %5 = getelementptr inbounds nuw %struct.rb_transcoding, ptr %4, i32 0, i32 0
  %6 = load ptr, ptr %5, align 8, !tbaa !51
  store ptr %6, ptr %3, align 8, !tbaa !14
  %7 = load ptr, ptr %3, align 8, !tbaa !14
  %8 = getelementptr inbounds nuw %struct.rb_transcoder, ptr %7, i32 0, i32 14
  %9 = load ptr, ptr %8, align 8, !tbaa !89
  %10 = icmp ne ptr %9, null
  br i1 %10, label %11, label %32

11:                                               ; preds = %1
  %12 = load ptr, ptr %3, align 8, !tbaa !14
  %13 = getelementptr inbounds nuw %struct.rb_transcoder, ptr %12, i32 0, i32 14
  %14 = load ptr, ptr %13, align 8, !tbaa !89
  %15 = load ptr, ptr %2, align 8, !tbaa !66
  %16 = getelementptr inbounds nuw %struct.rb_transcoding, ptr %15, i32 0, i32 0
  %17 = load ptr, ptr %16, align 8, !tbaa !51
  %18 = getelementptr inbounds nuw %struct.rb_transcoder, ptr %17, i32 0, i32 12
  %19 = load i64, ptr %18, align 8, !tbaa !90
  %20 = icmp ule i64 %19, 8
  br i1 %20, label %21, label %25

21:                                               ; preds = %11
  %22 = load ptr, ptr %2, align 8, !tbaa !66
  %23 = getelementptr inbounds nuw %struct.rb_transcoding, ptr %22, i32 0, i32 13
  %24 = getelementptr inbounds [8 x i8], ptr %23, i64 0, i64 0
  br label %29

25:                                               ; preds = %11
  %26 = load ptr, ptr %2, align 8, !tbaa !66
  %27 = getelementptr inbounds nuw %struct.rb_transcoding, ptr %26, i32 0, i32 13
  %28 = load ptr, ptr %27, align 8, !tbaa !41
  br label %29

29:                                               ; preds = %25, %21
  %30 = phi ptr [ %24, %21 ], [ %28, %25 ]
  %31 = call i32 %14(ptr noundef %30)
  br label %32

32:                                               ; preds = %29, %1
  %33 = load ptr, ptr %3, align 8, !tbaa !14
  %34 = getelementptr inbounds nuw %struct.rb_transcoder, ptr %33, i32 0, i32 12
  %35 = load i64, ptr %34, align 8, !tbaa !90
  %36 = icmp ult i64 8, %35
  br i1 %36, label %37, label %41

37:                                               ; preds = %32
  %38 = load ptr, ptr %2, align 8, !tbaa !66
  %39 = getelementptr inbounds nuw %struct.rb_transcoding, ptr %38, i32 0, i32 13
  %40 = load ptr, ptr %39, align 8, !tbaa !41
  call void @ruby_xfree(ptr noundef %40)
  br label %41

41:                                               ; preds = %37, %32
  %42 = load ptr, ptr %3, align 8, !tbaa !14
  %43 = getelementptr inbounds nuw %struct.rb_transcoder, ptr %42, i32 0, i32 9
  %44 = load i32, ptr %43, align 4, !tbaa !70
  %45 = icmp slt i32 8, %44
  br i1 %45, label %46, label %50

46:                                               ; preds = %41
  %47 = load ptr, ptr %2, align 8, !tbaa !66
  %48 = getelementptr inbounds nuw %struct.rb_transcoding, ptr %47, i32 0, i32 9
  %49 = load ptr, ptr %48, align 8, !tbaa !41
  call void @ruby_xfree(ptr noundef %49)
  br label %50

50:                                               ; preds = %46, %41
  %51 = load ptr, ptr %3, align 8, !tbaa !14
  %52 = getelementptr inbounds nuw %struct.rb_transcoder, ptr %51, i32 0, i32 10
  %53 = load i32, ptr %52, align 8, !tbaa !91
  %54 = icmp slt i32 8, %53
  br i1 %54, label %55, label %59

55:                                               ; preds = %50
  %56 = load ptr, ptr %2, align 8, !tbaa !66
  %57 = getelementptr inbounds nuw %struct.rb_transcoding, ptr %56, i32 0, i32 12
  %58 = load ptr, ptr %57, align 8, !tbaa !41
  call void @ruby_xfree(ptr noundef %58)
  br label %59

59:                                               ; preds = %55, %50
  %60 = load ptr, ptr %2, align 8, !tbaa !66
  call void @ruby_xfree(ptr noundef %60)
  call void @llvm.lifetime.end.p0(i64 8, ptr %3) #25
  ret void
}

; Function Attrs: nounwind sspstrong uwtable
define dso_local void @rb_econv_close(ptr noundef %0) #0 {
  %2 = alloca ptr, align 8
  %3 = alloca i32, align 4
  store ptr %0, ptr %2, align 8, !tbaa !30
  call void @llvm.lifetime.start.p0(i64 4, ptr %3) #25
  %4 = load ptr, ptr %2, align 8, !tbaa !30
  %5 = getelementptr inbounds nuw %struct.rb_econv_t, ptr %4, i32 0, i32 12
  %6 = load i32, ptr %5, align 8, !tbaa !54
  %7 = icmp ne i32 %6, 0
  br i1 %7, label %8, label %12

8:                                                ; preds = %1
  %9 = load ptr, ptr %2, align 8, !tbaa !30
  %10 = getelementptr inbounds nuw %struct.rb_econv_t, ptr %9, i32 0, i32 4
  %11 = load ptr, ptr %10, align 8, !tbaa !55
  call void @ruby_xfree(ptr noundef %11)
  br label %12

12:                                               ; preds = %8, %1
  store i32 0, ptr %3, align 4, !tbaa !29
  br label %13

13:                                               ; preds = %36, %12
  %14 = load i32, ptr %3, align 4, !tbaa !29
  %15 = load ptr, ptr %2, align 8, !tbaa !30
  %16 = getelementptr inbounds nuw %struct.rb_econv_t, ptr %15, i32 0, i32 14
  %17 = load i32, ptr %16, align 8, !tbaa !47
  %18 = icmp slt i32 %14, %17
  br i1 %18, label %19, label %39

19:                                               ; preds = %13
  %20 = load ptr, ptr %2, align 8, !tbaa !30
  %21 = getelementptr inbounds nuw %struct.rb_econv_t, ptr %20, i32 0, i32 11
  %22 = load ptr, ptr %21, align 8, !tbaa !48
  %23 = load i32, ptr %3, align 4, !tbaa !29
  %24 = sext i32 %23 to i64
  %25 = getelementptr %struct.rb_econv_elem_t, ptr %22, i64 %24
  %26 = getelementptr inbounds nuw %struct.rb_econv_elem_t, ptr %25, i32 0, i32 0
  %27 = load ptr, ptr %26, align 8, !tbaa !49
  call void @rb_transcoding_close(ptr noundef %27)
  %28 = load ptr, ptr %2, align 8, !tbaa !30
  %29 = getelementptr inbounds nuw %struct.rb_econv_t, ptr %28, i32 0, i32 11
  %30 = load ptr, ptr %29, align 8, !tbaa !48
  %31 = load i32, ptr %3, align 4, !tbaa !29
  %32 = sext i32 %31 to i64
  %33 = getelementptr %struct.rb_econv_elem_t, ptr %30, i64 %32
  %34 = getelementptr inbounds nuw %struct.rb_econv_elem_t, ptr %33, i32 0, i32 1
  %35 = load ptr, ptr %34, align 8, !tbaa !56
  call void @ruby_xfree(ptr noundef %35)
  br label %36

36:                                               ; preds = %19
  %37 = load i32, ptr %3, align 4, !tbaa !29
  %38 = add i32 %37, 1
  store i32 %38, ptr %3, align 4, !tbaa !29
  br label %13, !llvm.loop !57

39:                                               ; preds = %13
  %40 = load ptr, ptr %2, align 8, !tbaa !30
  %41 = getelementptr inbounds nuw %struct.rb_econv_t, ptr %40, i32 0, i32 7
  %42 = load ptr, ptr %41, align 8, !tbaa !58
  call void @ruby_xfree(ptr noundef %42)
  %43 = load ptr, ptr %2, align 8, !tbaa !30
  %44 = getelementptr inbounds nuw %struct.rb_econv_t, ptr %43, i32 0, i32 11
  %45 = load ptr, ptr %44, align 8, !tbaa !48
  call void @ruby_xfree(ptr noundef %45)
  %46 = load ptr, ptr %2, align 8, !tbaa !30
  call void @ruby_xfree(ptr noundef %46)
  call void @llvm.lifetime.end.p0(i64 4, ptr %3) #25
  ret void
}