; Function Attrs: nounwind sspstrong uwtable
define dso_local void @rb_econv_close(ptr noundef %0) local_unnamed_addr #0 {
  %2 = getelementptr inbounds nuw i8, ptr %0, i64 88
  %3 = load i32, ptr %2, align 8, !tbaa !40
  %.not = icmp eq i32 %3, 0
  br i1 %.not, label %7, label %4

4:                                                ; preds = %1
  %5 = getelementptr inbounds nuw i8, ptr %0, i64 24
  %6 = load ptr, ptr %5, align 8, !tbaa !74
  tail call void @ruby_xfree(ptr noundef %6) #22
  br label %7

7:                                                ; preds = %4, %1
  %8 = getelementptr inbounds nuw i8, ptr %0, i64 96
  %9 = load i32, ptr %8, align 8, !tbaa !46
  %10 = icmp sgt i32 %9, 0
  br i1 %10, label %.lr.ph, label %._crit_edge

.lr.ph:                                           ; preds = %7
  %11 = getelementptr inbounds nuw i8, ptr %0, i64 80
  br label %12

12:                                               ; preds = %.lr.ph, %rb_transcoding_close.exit
  %indvars.iv = phi i64 [ 0, %.lr.ph ], [ %indvars.iv.next, %rb_transcoding_close.exit ]
  %13 = load ptr, ptr %11, align 8, !tbaa !47
  %14 = getelementptr %struct.rb_econv_elem_t, ptr %13, i64 %indvars.iv
  %15 = load ptr, ptr %14, align 8, !tbaa !63
  %16 = load ptr, ptr %15, align 8, !tbaa !65
  %17 = getelementptr inbounds nuw i8, ptr %16, i64 88
  %18 = load ptr, ptr %17, align 8, !tbaa !75
  %.not.i = icmp eq ptr %18, null
  br i1 %.not.i, label %29, label %19

19:                                               ; preds = %12
  %20 = getelementptr inbounds nuw i8, ptr %16, i64 72
  %21 = load i64, ptr %20, align 8, !tbaa !76
  %22 = icmp ult i64 %21, 9
  %23 = getelementptr inbounds nuw i8, ptr %15, i64 88
  br i1 %22, label %26, label %24

24:                                               ; preds = %19
  %25 = load ptr, ptr %23, align 8, !tbaa !27
  br label %26

26:                                               ; preds = %24, %19
  %27 = phi ptr [ %25, %24 ], [ %23, %19 ]
  %28 = tail call i32 %18(ptr noundef %27) #22
  br label %29

29:                                               ; preds = %26, %12
  %30 = getelementptr inbounds nuw i8, ptr %16, i64 72
  %31 = load i64, ptr %30, align 8, !tbaa !76
  %32 = icmp ugt i64 %31, 8
  br i1 %32, label %33, label %36

33:                                               ; preds = %29
  %34 = getelementptr inbounds nuw i8, ptr %15, i64 88
  %35 = load ptr, ptr %34, align 8, !tbaa !27
  tail call void @ruby_xfree(ptr noundef %35) #22
  br label %36

36:                                               ; preds = %33, %29
  %37 = getelementptr inbounds nuw i8, ptr %16, i64 60
  %38 = load i32, ptr %37, align 4, !tbaa !77
  %39 = icmp sgt i32 %38, 8
  br i1 %39, label %40, label %43

40:                                               ; preds = %36
  %41 = getelementptr inbounds nuw i8, ptr %15, i64 56
  %42 = load ptr, ptr %41, align 8, !tbaa !27
  tail call void @ruby_xfree(ptr noundef %42) #22
  br label %43

43:                                               ; preds = %40, %36
  %44 = getelementptr inbounds nuw i8, ptr %16, i64 64
  %45 = load i32, ptr %44, align 8, !tbaa !78
  %46 = icmp sgt i32 %45, 8
  br i1 %46, label %47, label %rb_transcoding_close.exit

47:                                               ; preds = %43
  %48 = getelementptr inbounds nuw i8, ptr %15, i64 80
  %49 = load ptr, ptr %48, align 8, !tbaa !27
  tail call void @ruby_xfree(ptr noundef %49) #22
  br label %rb_transcoding_close.exit

rb_transcoding_close.exit:                        ; preds = %43, %47
  tail call void @ruby_xfree(ptr noundef nonnull %15) #22
  %50 = load ptr, ptr %11, align 8, !tbaa !47
  %51 = getelementptr %struct.rb_econv_elem_t, ptr %50, i64 %indvars.iv, i32 1
  %52 = load ptr, ptr %51, align 8, !tbaa !79
  tail call void @ruby_xfree(ptr noundef %52) #22
  %indvars.iv.next = add nuw nsw i64 %indvars.iv, 1
  %53 = load i32, ptr %8, align 8, !tbaa !46
  %54 = sext i32 %53 to i64
  %55 = icmp slt i64 %indvars.iv.next, %54
  br i1 %55, label %12, label %._crit_edge, !llvm.loop !80

._crit_edge:                                      ; preds = %rb_transcoding_close.exit, %7
  %56 = getelementptr inbounds nuw i8, ptr %0, i64 48
  %57 = load ptr, ptr %56, align 8, !tbaa !81
  tail call void @ruby_xfree(ptr noundef %57) #22
  %58 = getelementptr inbounds nuw i8, ptr %0, i64 80
  %59 = load ptr, ptr %58, align 8, !tbaa !47
  tail call void @ruby_xfree(ptr noundef %59) #22
  tail call void @ruby_xfree(ptr noundef nonnull %0) #22
  ret void
}